target datalayout = "e-m:e-p270:32:32-p271:32:32-p272:64:64-i64:64-i128:128-f80:128-n8:16:32:64-S128"
target triple = "x86_64-pc-linux-gnu"

%struct.date_mode = type { i32, i32, ptr }
%struct.string_list = type { ptr, i64, i64, i8, ptr }
%struct.shortlog = type { %struct.string_list, i32, i32, i32, i32, i32, i32, i32, i32, %struct.date_mode, i32, %struct.string_list, %struct.string_list, i32, %struct.string_list, ptr }
%struct.ident_split = type { ptr, ptr, ptr, ptr, ptr, ptr, ptr, ptr }

@.str.27 = private unnamed_addr constant [8 x i8] c" <%.*s>\00", align 1

; Function Attrs: nounwind uwtable
define internal i32 @parse_ident(ptr noundef %0, ptr noundef %1, ptr noundef %2) #0 {
  %4 = alloca i32, align 4
  %5 = alloca ptr, align 8
  %6 = alloca ptr, align 8
  %7 = alloca ptr, align 8
  %8 = alloca ptr, align 8
  %9 = alloca ptr, align 8
  %10 = alloca i64, align 8
  %11 = alloca i64, align 8
  %12 = alloca %struct.ident_split, align 8
  %13 = alloca i32, align 4
  store ptr %0, ptr %5, align 8, !tbaa !4
  store ptr %1, ptr %6, align 8, !tbaa !164
  store ptr %2, ptr %7, align 8, !tbaa !30
  call void @llvm.lifetime.start.p0(i64 8, ptr %8) #10
  call void @llvm.lifetime.start.p0(i64 8, ptr %9) #10
  call void @llvm.lifetime.start.p0(i64 8, ptr %10) #10
  call void @llvm.lifetime.start.p0(i64 8, ptr %11) #10
  call void @llvm.lifetime.start.p0(i64 64, ptr %12) #10
  %14 = load ptr, ptr %7, align 8, !tbaa !30
  %15 = load ptr, ptr %7, align 8, !tbaa !30
  %16 = call i64 @strlen(ptr noundef %15) #11
  %17 = trunc i64 %16 to i32
  %18 = call i32 @split_ident_line(ptr noundef %12, ptr noundef %14, i32 noundef %17)
  %19 = icmp ne i32 %18, 0
  br i1 %19, label %20, label %21

20:                                               ; preds = %3
  store i32 -1, ptr %4, align 4
  store i32 1, ptr %13, align 4
  br label %56

21:                                               ; preds = %3
  %22 = getelementptr inbounds nuw %struct.ident_split, ptr %12, i32 0, i32 0
  %23 = load ptr, ptr %22, align 8, !tbaa !167
  store ptr %23, ptr %9, align 8, !tbaa !30
  %24 = getelementptr inbounds nuw %struct.ident_split, ptr %12, i32 0, i32 2
  %25 = load ptr, ptr %24, align 8, !tbaa !168
  store ptr %25, ptr %8, align 8, !tbaa !30
  %26 = getelementptr inbounds nuw %struct.ident_split, ptr %12, i32 0, i32 1
  %27 = load ptr, ptr %26, align 8, !tbaa !169
  %28 = getelementptr inbounds nuw %struct.ident_split, ptr %12, i32 0, i32 0
  %29 = load ptr, ptr %28, align 8, !tbaa !167
  %30 = ptrtoint ptr %27 to i64
  %31 = ptrtoint ptr %29 to i64
  %32 = sub i64 %30, %31
  store i64 %32, ptr %10, align 8, !tbaa !157
  %33 = getelementptr inbounds nuw %struct.ident_split, ptr %12, i32 0, i32 3
  %34 = load ptr, ptr %33, align 8, !tbaa !170
  %35 = getelementptr inbounds nuw %struct.ident_split, ptr %12, i32 0, i32 2
  %36 = load ptr, ptr %35, align 8, !tbaa !168
  %37 = ptrtoint ptr %34 to i64
  %38 = ptrtoint ptr %36 to i64
  %39 = sub i64 %37, %38
  store i64 %39, ptr %11, align 8, !tbaa !157
  %40 = load ptr, ptr %5, align 8, !tbaa !4
  %41 = getelementptr inbounds nuw %struct.shortlog, ptr %40, i32 0, i32 14
  %42 = call i32 @map_user(ptr noundef %41, ptr noundef %8, ptr noundef %11, ptr noundef %9, ptr noundef %10)
  %43 = load ptr, ptr %6, align 8, !tbaa !164
  %44 = load ptr, ptr %9, align 8, !tbaa !30
  %45 = load i64, ptr %10, align 8, !tbaa !157
  call void @strbuf_add(ptr noundef %43, ptr noundef %44, i64 noundef %45)
  %46 = load ptr, ptr %5, align 8, !tbaa !4
  %47 = getelementptr inbounds nuw %struct.shortlog, ptr %46, i32 0, i32 13
  %48 = load i32, ptr %47, align 8, !tbaa !62
  %49 = icmp ne i32 %48, 0
  br i1 %49, label %50, label %55

50:                                               ; preds = %21
  %51 = load ptr, ptr %6, align 8, !tbaa !164
  %52 = load i64, ptr %11, align 8, !tbaa !157
  %53 = trunc i64 %52 to i32
  %54 = load ptr, ptr %8, align 8, !tbaa !30
  call void (ptr, ptr, ...) @strbuf_addf(ptr noundef %51, ptr noundef @.str.27, i32 noundef %53, ptr noundef %54)
  br label %55

55:                                               ; preds = %50, %21
  store i32 0, ptr %4, align 4
  store i32 1, ptr %13, align 4
  br label %56

56:                                               ; preds = %55, %20
  call void @llvm.lifetime.end.p0(i64 64, ptr %12) #10
  call void @llvm.lifetime.end.p0(i64 8, ptr %11) #10
  call void @llvm.lifetime.end.p0(i64 8, ptr %10) #10
  call void @llvm.lifetime.end.p0(i64 8, ptr %9) #10
  call void @llvm.lifetime.end.p0(i64 8, ptr %8) #10
  %57 = load i32, ptr %4, align 4
  ret i32 %57
}