; Function Attrs: nounwind uwtable
define internal fastcc range(i32 -1, 1) i32 @parse_ident(ptr noundef %0, ptr noundef nonnull %1, ptr noundef %2) unnamed_addr #0 {
  %4 = alloca ptr, align 8
  %5 = alloca ptr, align 8
  %6 = alloca i64, align 8
  %7 = alloca i64, align 8
  %8 = alloca %struct.ident_split, align 8
  call void @llvm.lifetime.start.p0(i64 8, ptr nonnull %4) #17
  call void @llvm.lifetime.start.p0(i64 8, ptr nonnull %5) #17
  call void @llvm.lifetime.start.p0(i64 8, ptr nonnull %6) #17
  call void @llvm.lifetime.start.p0(i64 8, ptr nonnull %7) #17
  call void @llvm.lifetime.start.p0(i64 64, ptr nonnull %8) #17
  %9 = tail call i64 @strlen(ptr noundef nonnull dereferenceable(1) %2) #18
  %10 = trunc i64 %9 to i32
  %11 = call i32 @split_ident_line(ptr noundef nonnull %8, ptr noundef nonnull %2, i32 noundef %10) #17
  %.not = icmp eq i32 %11, 0
  br i1 %.not, label %12, label %36

12:                                               ; preds = %3
  %13 = load ptr, ptr %8, align 8, !tbaa !146
  store ptr %13, ptr %5, align 8, !tbaa !26
  %14 = getelementptr inbounds nuw i8, ptr %8, i64 16
  %15 = load ptr, ptr %14, align 8, !tbaa !147
  store ptr %15, ptr %4, align 8, !tbaa !26
  %16 = getelementptr inbounds nuw i8, ptr %8, i64 8
  %17 = load ptr, ptr %16, align 8, !tbaa !148
  %18 = ptrtoint ptr %17 to i64
  %19 = ptrtoint ptr %13 to i64
  %20 = sub i64 %18, %19
  store i64 %20, ptr %6, align 8, !tbaa !149
  %21 = getelementptr inbounds nuw i8, ptr %8, i64 24
  %22 = load ptr, ptr %21, align 8, !tbaa !150
  %23 = ptrtoint ptr %22 to i64
  %24 = ptrtoint ptr %15 to i64
  %25 = sub i64 %23, %24
  store i64 %25, ptr %7, align 8, !tbaa !149
  %26 = getelementptr inbounds nuw i8, ptr %0, i64 184
  %27 = call i32 @map_user(ptr noundef nonnull %26, ptr noundef nonnull %4, ptr noundef nonnull %7, ptr noundef nonnull %5, ptr noundef nonnull %6) #17
  %28 = load ptr, ptr %5, align 8, !tbaa !26
  %29 = load i64, ptr %6, align 8, !tbaa !149
  call void @strbuf_add(ptr noundef nonnull %1, ptr noundef %28, i64 noundef %29) #17
  %30 = getelementptr inbounds nuw i8, ptr %0, i64 176
  %31 = load i32, ptr %30, align 8, !tbaa !53
  %.not6 = icmp eq i32 %31, 0
  br i1 %.not6, label %36, label %32

32:                                               ; preds = %12
  %33 = load i64, ptr %7, align 8, !tbaa !149
  %34 = trunc i64 %33 to i32
  %35 = load ptr, ptr %4, align 8, !tbaa !26
  call void (ptr, ptr, ...) @strbuf_addf(ptr noundef nonnull %1, ptr noundef nonnull @.str.27, i32 noundef %34, ptr noundef %35) #17
  br label %36

36:                                               ; preds = %12, %32, %3
  %.0 = phi i32 [ -1, %3 ], [ 0, %32 ], [ 0, %12 ]
  call void @llvm.lifetime.end.p0(i64 64, ptr nonnull %8) #17
  call void @llvm.lifetime.end.p0(i64 8, ptr nonnull %7) #17
  call void @llvm.lifetime.end.p0(i64 8, ptr nonnull %6) #17
  call void @llvm.lifetime.end.p0(i64 8, ptr nonnull %5) #17
  call void @llvm.lifetime.end.p0(i64 8, ptr nonnull %4) #17
  ret i32 %.0
}